; Function Attrs: nofree nounwind uwtable
define double @geod_gendirect(ptr noundef readonly captures(none) %0, double noundef %1, double noundef %2, double noundef %3, i32 noundef %4, double noundef %5, ptr noundef %6, ptr noundef %7, ptr noundef %8, ptr noundef %9, ptr noundef %10, ptr noundef %11, ptr noundef %12, ptr noundef %13) local_unnamed_addr #3 {
  %15 = alloca %struct.geod_geodesicline, align 8
  call void @llvm.lifetime.start.p0(i64 512, ptr nonnull %15) #12
  %.not = icmp eq ptr %6, null
  %16 = select i1 %.not, i32 0, i32 128
  %.not23 = icmp eq ptr %7, null
  %17 = select i1 %.not23, i32 0, i32 264
  %.not24 = icmp eq ptr %8, null
  %18 = select i1 %.not24, i32 0, i32 512
  %.not25 = icmp eq ptr %9, null
  %19 = select i1 %.not25, i32 0, i32 1025
  %.not26 = icmp eq ptr %10, null
  %20 = select i1 %.not26, i32 0, i32 4101
  %21 = icmp ne ptr %11, null
  %22 = icmp ne ptr %12, null
  %23 = or i1 %21, %22
  %24 = select i1 %23, i32 8197, i32 0
  %.not27 = icmp eq ptr %13, null
  %25 = select i1 %.not27, i32 0, i32 16400
  %26 = and i32 %4, 1
  %.not28 = icmp eq i32 %26, 0
  %27 = select i1 %.not28, i32 2051, i32 0
  %28 = or disjoint i32 %16, %27
  %29 = or disjoint i32 %28, %17
  %30 = or disjoint i32 %29, %18
  %31 = or i32 %30, %19
  %32 = or i32 %31, %20
  %33 = or i32 %32, %24
  %34 = or i32 %33, %25
  call void @geod_lineinit(ptr noundef nonnull %15, ptr noundef %0, double noundef %1, double noundef %2, double noundef %3, i32 noundef %34)
  %35 = call double @geod_genposition(ptr noundef nonnull %15, i32 noundef %4, double noundef %5, ptr noundef %6, ptr noundef %7, ptr noundef %8, ptr noundef %9, ptr noundef %10, ptr noundef %11, ptr noundef %12, ptr noundef %13)
  call void @llvm.lifetime.end.p0(i64 512, ptr nonnull %15) #12
  ret double %35
}